target datalayout = "e-m:e-p270:32:32-p271:32:32-p272:64:64-i64:64-i128:128-f80:128-n8:16:32:64-S128"
target triple = "x86_64-pc-linux-gnu"

; Function Attrs: alwaysinline nounwind willreturn memory(none) uwtable
define internal i32 @av_clip_c(i32 noundef %0, i32 noundef %1, i32 noundef %2) #8 {
  %4 = alloca i32, align 4
  %5 = alloca i32, align 4
  %6 = alloca i32, align 4
  %7 = alloca i32, align 4
  store i32 %0, ptr %5, align 4, !tbaa !11
  store i32 %1, ptr %6, align 4, !tbaa !11
  store i32 %2, ptr %7, align 4, !tbaa !11
  %8 = load i32, ptr %5, align 4, !tbaa !11
  %9 = load i32, ptr %6, align 4, !tbaa !11
  %10 = icmp slt i32 %8, %9
  br i1 %10, label %11, label %13

11:                                               ; preds = %3
  %12 = load i32, ptr %6, align 4, !tbaa !11
  store i32 %12, ptr %4, align 4
  br label %21

13:                                               ; preds = %3
  %14 = load i32, ptr %5, align 4, !tbaa !11
  %15 = load i32, ptr %7, align 4, !tbaa !11
  %16 = icmp sgt i32 %14, %15
  br i1 %16, label %17, label %19

17:                                               ; preds = %13
  %18 = load i32, ptr %7, align 4, !tbaa !11
  store i32 %18, ptr %4, align 4
  br label %21

19:                                               ; preds = %13
  %20 = load i32, ptr %5, align 4, !tbaa !11
  store i32 %20, ptr %4, align 4
  br label %21

21:                                               ; preds = %19, %17, %11
  %22 = load i32, ptr %4, align 4
  ret i32 %22
}

; Function Attrs: nounwind uwtable
define internal void @filter16_roberts(ptr noundef %0, i32 noundef %1, float noundef %2, float noundef %3, ptr noundef %4, ptr noundef %5, i32 noundef %6, i32 noundef %7, i32 noundef %8, i32 noundef %9, i32 noundef %10) #0 {
  %12 = alloca ptr, align 8
  %13 = alloca i32, align 4
  %14 = alloca float, align 4
  %15 = alloca float, align 4
  %16 = alloca ptr, align 8
  %17 = alloca ptr, align 8
  %18 = alloca i32, align 4
  %19 = alloca i32, align 4
  %20 = alloca i32, align 4
  %21 = alloca i32, align 4
  %22 = alloca i32, align 4
  %23 = alloca ptr, align 8
  %24 = alloca i32, align 4
  %25 = alloca float, align 4
  %26 = alloca float, align 4
  store ptr %0, ptr %12, align 8, !tbaa !9
  store i32 %1, ptr %13, align 4, !tbaa !11
  store float %2, ptr %14, align 4, !tbaa !52
  store float %3, ptr %15, align 4, !tbaa !52
  store ptr %4, ptr %16, align 8, !tbaa !53
  store ptr %5, ptr %17, align 8, !tbaa !89
  store i32 %6, ptr %18, align 4, !tbaa !11
  store i32 %7, ptr %19, align 4, !tbaa !11
  store i32 %8, ptr %20, align 4, !tbaa !11
  store i32 %9, ptr %21, align 4, !tbaa !11
  store i32 %10, ptr %22, align 4, !tbaa !11
  call void @llvm.lifetime.start.p0(i64 8, ptr %23) #10
  %27 = load ptr, ptr %12, align 8, !tbaa !9
  store ptr %27, ptr %23, align 8, !tbaa !114
  call void @llvm.lifetime.start.p0(i64 4, ptr %24) #10
  store i32 0, ptr %24, align 4, !tbaa !11
  br label %28

28:                                               ; preds = %95, %11
  %29 = load i32, ptr %24, align 4, !tbaa !11
  %30 = load i32, ptr %13, align 4, !tbaa !11
  %31 = icmp slt i32 %29, %30
  br i1 %31, label %32, label %98

32:                                               ; preds = %28
  call void @llvm.lifetime.start.p0(i64 4, ptr %25) #10
  %33 = load ptr, ptr %17, align 8, !tbaa !89
  %34 = getelementptr inbounds ptr, ptr %33, i64 0
  %35 = load ptr, ptr %34, align 8, !tbaa !9
  %36 = load i32, ptr %24, align 4, !tbaa !11
  %37 = mul nsw i32 2, %36
  %38 = sext i32 %37 to i64
  %39 = getelementptr inbounds i8, ptr %35, i64 %38
  %40 = load i16, ptr %39, align 2, !tbaa !91
  %41 = zext i16 %40 to i32
  %42 = mul nsw i32 %41, 1
  %43 = load ptr, ptr %17, align 8, !tbaa !89
  %44 = getelementptr inbounds ptr, ptr %43, i64 1
  %45 = load ptr, ptr %44, align 8, !tbaa !9
  %46 = load i32, ptr %24, align 4, !tbaa !11
  %47 = mul nsw i32 2, %46
  %48 = sext i32 %47 to i64
  %49 = getelementptr inbounds i8, ptr %45, i64 %48
  %50 = load i16, ptr %49, align 2, !tbaa !91
  %51 = zext i16 %50 to i32
  %52 = mul nsw i32 %51, -1
  %53 = add nsw i32 %42, %52
  %54 = sitofp i32 %53 to float
  store float %54, ptr %25, align 4, !tbaa !52
  call void @llvm.lifetime.start.p0(i64 4, ptr %26) #10
  %55 = load ptr, ptr %17, align 8, !tbaa !89
  %56 = getelementptr inbounds ptr, ptr %55, i64 4
  %57 = load ptr, ptr %56, align 8, !tbaa !9
  %58 = load i32, ptr %24, align 4, !tbaa !11
  %59 = mul nsw i32 2, %58
  %60 = sext i32 %59 to i64
  %61 = getelementptr inbounds i8, ptr %57, i64 %60
  %62 = load i16, ptr %61, align 2, !tbaa !91
  %63 = zext i16 %62 to i32
  %64 = mul nsw i32 %63, 1
  %65 = load ptr, ptr %17, align 8, !tbaa !89
  %66 = getelementptr inbounds ptr, ptr %65, i64 3
  %67 = load ptr, ptr %66, align 8, !tbaa !9
  %68 = load i32, ptr %24, align 4, !tbaa !11
  %69 = mul nsw i32 2, %68
  %70 = sext i32 %69 to i64
  %71 = getelementptr inbounds i8, ptr %67, i64 %70
  %72 = load i16, ptr %71, align 2, !tbaa !91
  %73 = zext i16 %72 to i32
  %74 = mul nsw i32 %73, -1
  %75 = add nsw i32 %64, %74
  %76 = sitofp i32 %75 to float
  store float %76, ptr %26, align 4, !tbaa !52
  %77 = load float, ptr %25, align 4, !tbaa !52
  %78 = load float, ptr %25, align 4, !tbaa !52
  %79 = load float, ptr %26, align 4, !tbaa !52
  %80 = load float, ptr %26, align 4, !tbaa !52
  %81 = fmul nsz float %79, %80
  %82 = call nsz float @llvm.fmuladd.f32(float %77, float %78, float %81)
  %83 = call nsz float @llvm.sqrt.f32(float %82)
  %84 = load float, ptr %14, align 4, !tbaa !52
  %85 = load float, ptr %15, align 4, !tbaa !52
  %86 = call nsz float @llvm.fmuladd.f32(float %83, float %84, float %85)
  %87 = fptosi float %86 to i32
  %88 = load i32, ptr %18, align 4, !tbaa !11
  %89 = call i32 @av_clip_c(i32 noundef %87, i32 noundef 0, i32 noundef %88) #12
  %90 = trunc i32 %89 to i16
  %91 = load ptr, ptr %23, align 8, !tbaa !114
  %92 = load i32, ptr %24, align 4, !tbaa !11
  %93 = sext i32 %92 to i64
  %94 = getelementptr inbounds i16, ptr %91, i64 %93
  store i16 %90, ptr %94, align 2, !tbaa !117
  call void @llvm.lifetime.end.p0(i64 4, ptr %26) #10
  call void @llvm.lifetime.end.p0(i64 4, ptr %25) #10
  br label %95

95:                                               ; preds = %32
  %96 = load i32, ptr %24, align 4, !tbaa !11
  %97 = add nsw i32 %96, 1
  store i32 %97, ptr %24, align 4, !tbaa !11
  br label %28, !llvm.loop !130

98:                                               ; preds = %28
  call void @llvm.lifetime.end.p0(i64 4, ptr %24) #10
  call void @llvm.lifetime.end.p0(i64 8, ptr %23) #10
  ret void
}