; Function Attrs: nofree norecurse nosync nounwind memory(read, argmem: readwrite, inaccessiblemem: none) uwtable
define internal void @filter16_roberts(ptr noundef writeonly captures(none) %0, i32 noundef %1, float noundef %2, float noundef %3, ptr readnone captures(none) %4, ptr noundef readonly captures(none) %5, i32 noundef %6, i32 %7, i32 %8, i32 %9, i32 %10) #6 {
  %12 = icmp sgt i32 %1, 0
  br i1 %12, label %.lr.ph, label %._crit_edge

.lr.ph:                                           ; preds = %11
  %13 = load ptr, ptr %5, align 8, !tbaa !46
  %14 = getelementptr inbounds nuw i8, ptr %5, i64 8
  %15 = load ptr, ptr %14, align 8, !tbaa !46
  %16 = getelementptr inbounds nuw i8, ptr %5, i64 32
  %17 = load ptr, ptr %16, align 8, !tbaa !46
  %18 = getelementptr inbounds nuw i8, ptr %5, i64 24
  %19 = load ptr, ptr %18, align 8, !tbaa !46
  %wide.trip.count = zext nneg i32 %1 to i64
  br label %20

20:                                               ; preds = %.lr.ph, %20
  %indvars.iv = phi i64 [ 0, %.lr.ph ], [ %indvars.iv.next, %20 ]
  %21 = shl nuw nsw i64 %indvars.iv, 1
  %22 = getelementptr inbounds nuw i8, ptr %13, i64 %21
  %23 = load i16, ptr %22, align 2, !tbaa !82
  %24 = zext i16 %23 to i32
  %25 = getelementptr inbounds nuw i8, ptr %15, i64 %21
  %26 = load i16, ptr %25, align 2, !tbaa !82
  %27 = zext i16 %26 to i32
  %28 = sub nsw i32 %24, %27
  %29 = sitofp i32 %28 to float
  %30 = getelementptr inbounds nuw i8, ptr %17, i64 %21
  %31 = load i16, ptr %30, align 2, !tbaa !82
  %32 = zext i16 %31 to i32
  %33 = getelementptr inbounds nuw i8, ptr %19, i64 %21
  %34 = load i16, ptr %33, align 2, !tbaa !82
  %35 = zext i16 %34 to i32
  %36 = sub nsw i32 %32, %35
  %37 = sitofp i32 %36 to float
  %38 = fmul nsz float %37, %37
  %39 = tail call nsz float @llvm.fmuladd.f32(float %29, float %29, float %38)
  %40 = tail call nsz float @llvm.sqrt.f32(float %39)
  %41 = tail call nsz float @llvm.fmuladd.f32(float %40, float %2, float %3)
  %42 = fptosi float %41 to i32
  %43 = icmp slt i32 %42, 0
  %..i = tail call i32 @llvm.smin.i32(i32 %6, i32 %42)
  %44 = trunc i32 %..i to i16
  %45 = select i1 %43, i16 0, i16 %44
  %46 = getelementptr inbounds nuw i16, ptr %0, i64 %indvars.iv
  store i16 %45, ptr %46, align 2, !tbaa !103
  %indvars.iv.next = add nuw nsw i64 %indvars.iv, 1
  %exitcond.not = icmp eq i64 %indvars.iv.next, %wide.trip.count
  br i1 %exitcond.not, label %._crit_edge, label %20, !llvm.loop !117

._crit_edge:                                      ; preds = %20, %11
  ret void
}